; Function Attrs: nounwind uwtable
define internal range(i32 0, 2) i32 @camellia_ctr_cipher(ptr noundef %0, ptr noundef %1, ptr noundef %2, i64 noundef %3) #1 {
  %5 = alloca i32, align 4
  %6 = tail call i32 @EVP_CIPHER_CTX_get_num(ptr noundef %0) #4
  call void @llvm.lifetime.start.p0(i64 4, ptr nonnull %5) #4
  %7 = tail call ptr @EVP_CIPHER_CTX_get_cipher_data(ptr noundef %0) #4
  %8 = icmp slt i32 %6, 0
  br i1 %8, label %22, label %9

9:                                                ; preds = %4
  store i32 %6, ptr %5, align 4, !tbaa !13
  %10 = getelementptr inbounds nuw i8, ptr %7, i64 288
  %11 = load ptr, ptr %10, align 8, !tbaa !10
  %.not = icmp eq ptr %11, null
  %12 = getelementptr inbounds nuw i8, ptr %0, i64 40
  %13 = tail call ptr @EVP_CIPHER_CTX_buf_noconst(ptr noundef %0) #4
  br i1 %.not, label %16, label %14

14:                                               ; preds = %9
  %15 = load ptr, ptr %10, align 8, !tbaa !10
  call void @CRYPTO_ctr128_encrypt_ctr32(ptr noundef %2, ptr noundef %1, i64 noundef %3, ptr noundef nonnull %7, ptr noundef nonnull %12, ptr noundef %13, ptr noundef nonnull %5, ptr noundef %15) #4
  br label %19

16:                                               ; preds = %9
  %17 = getelementptr inbounds nuw i8, ptr %7, i64 280
  %18 = load ptr, ptr %17, align 8, !tbaa !3
  call void @CRYPTO_ctr128_encrypt(ptr noundef %2, ptr noundef %1, i64 noundef %3, ptr noundef nonnull %7, ptr noundef nonnull %12, ptr noundef %13, ptr noundef nonnull %5, ptr noundef %18) #4
  br label %19

19:                                               ; preds = %16, %14
  %20 = load i32, ptr %5, align 4, !tbaa !13
  %21 = call i32 @EVP_CIPHER_CTX_set_num(ptr noundef nonnull %0, i32 noundef %20) #4
  br label %22

22:                                               ; preds = %4, %19
  %.0 = phi i32 [ 1, %19 ], [ 0, %4 ]
  call void @llvm.lifetime.end.p0(i64 4, ptr nonnull %5) #4
  ret i32 %.0
}